target datalayout = "e-m:e-p270:32:32-p271:32:32-p272:64:64-i64:64-i128:128-f80:128-n8:16:32:64-S128"
target triple = "x86_64-pc-linux-gnu"

; Function Attrs: mustprogress nounwind uwtable
define dso_local noundef zeroext i1 @_ZNK6cmUuid15IntFromHexDigitEcRc(ptr noundef nonnull align 1 dereferenceable(1) %0, i8 noundef signext %1, ptr noundef nonnull align 1 dereferenceable(1) %2) #2 align 2 {
  %4 = alloca i1, align 1
  %5 = alloca ptr, align 8
  %6 = alloca i8, align 1
  %7 = alloca ptr, align 8
  store ptr %0, ptr %5, align 8, !tbaa !4
  store i8 %1, ptr %6, align 1, !tbaa !18
  store ptr %2, ptr %7, align 8, !tbaa !17
  %8 = load i8, ptr %6, align 1, !tbaa !18
  %9 = sext i8 %8 to i32
  %10 = icmp sge i32 %9, 48
  br i1 %10, label %11, label %21

11:                                               ; preds = %3
  %12 = load i8, ptr %6, align 1, !tbaa !18
  %13 = sext i8 %12 to i32
  %14 = icmp sle i32 %13, 57
  br i1 %14, label %15, label %21

15:                                               ; preds = %11
  %16 = load i8, ptr %6, align 1, !tbaa !18
  %17 = sext i8 %16 to i32
  %18 = sub nsw i32 %17, 48
  %19 = trunc i32 %18 to i8
  %20 = load ptr, ptr %7, align 8, !tbaa !17
  store i8 %19, ptr %20, align 1, !tbaa !18
  store i1 true, ptr %4, align 1
  br label %52

21:                                               ; preds = %11, %3
  %22 = load i8, ptr %6, align 1, !tbaa !18
  %23 = sext i8 %22 to i32
  %24 = icmp sge i32 %23, 97
  br i1 %24, label %25, label %36

25:                                               ; preds = %21
  %26 = load i8, ptr %6, align 1, !tbaa !18
  %27 = sext i8 %26 to i32
  %28 = icmp sle i32 %27, 102
  br i1 %28, label %29, label %36

29:                                               ; preds = %25
  %30 = load i8, ptr %6, align 1, !tbaa !18
  %31 = sext i8 %30 to i32
  %32 = sub nsw i32 %31, 97
  %33 = add nsw i32 %32, 10
  %34 = trunc i32 %33 to i8
  %35 = load ptr, ptr %7, align 8, !tbaa !17
  store i8 %34, ptr %35, align 1, !tbaa !18
  store i1 true, ptr %4, align 1
  br label %52

36:                                               ; preds = %25, %21
  %37 = load i8, ptr %6, align 1, !tbaa !18
  %38 = sext i8 %37 to i32
  %39 = icmp sge i32 %38, 65
  br i1 %39, label %40, label %51

40:                                               ; preds = %36
  %41 = load i8, ptr %6, align 1, !tbaa !18
  %42 = sext i8 %41 to i32
  %43 = icmp sle i32 %42, 70
  br i1 %43, label %44, label %51

44:                                               ; preds = %40
  %45 = load i8, ptr %6, align 1, !tbaa !18
  %46 = sext i8 %45 to i32
  %47 = sub nsw i32 %46, 65
  %48 = add nsw i32 %47, 10
  %49 = trunc i32 %48 to i8
  %50 = load ptr, ptr %7, align 8, !tbaa !17
  store i8 %49, ptr %50, align 1, !tbaa !18
  store i1 true, ptr %4, align 1
  br label %52

51:                                               ; preds = %40, %36
  store i1 false, ptr %4, align 1
  br label %52

52:                                               ; preds = %51, %44, %29, %15
  %53 = load i1, ptr %4, align 1
  ret i1 %53
}