; Function Attrs: mustprogress nofree norecurse nosync nounwind willreturn memory(argmem: write) uwtable
define dso_local noundef zeroext i1 @_ZNK6cmUuid15IntFromHexDigitEcRc(ptr noundef nonnull readnone align 1 captures(none) dereferenceable(1) %0, i8 noundef signext %1, ptr noundef nonnull writeonly align 1 captures(none) dereferenceable(1) %2) local_unnamed_addr #6 align 2 {
  %4 = add i8 %1, -48
  %or.cond = icmp ult i8 %4, 10
  br i1 %or.cond, label %.sink.split, label %5

5:                                                ; preds = %3
  %6 = add i8 %1, -97
  %or.cond5 = icmp ult i8 %6, 6
  br i1 %or.cond5, label %7, label %9

7:                                                ; preds = %5
  %8 = add nsw i8 %1, -87
  br label %.sink.split

9:                                                ; preds = %5
  %10 = add i8 %1, -65
  %or.cond8 = icmp ult i8 %10, 6
  br i1 %or.cond8, label %11, label %13

11:                                               ; preds = %9
  %12 = add nsw i8 %1, -55
  br label %.sink.split

.sink.split:                                      ; preds = %3, %7, %11
  %.sink = phi i8 [ %12, %11 ], [ %8, %7 ], [ %4, %3 ]
  store i8 %.sink, ptr %2, align 1, !tbaa !16
  br label %13

13:                                               ; preds = %.sink.split, %9
  %.0 = phi i1 [ false, %9 ], [ true, %.sink.split ]
  ret i1 %.0
}